(dp1
S'rangeid'
p2
I123
sS'prevwidth'
p3
I593
sS'range_interval'
p4
(dp5
I65
I01
sI35
I01
sI100
I01
sI69
I01
sI97
I01
sI40
I01
sI105
I01
sI103
I01
sI46
I01
sI48
I01
sI67
I01
sI110
I01
sI120
I01
sI58
I01
sI91
I01
sI60
I01
ssS'interval'
p6
I00
sS'range'
p7
(dp8
I13
(lp9
I333
aI213
asI32
(lp10
I529
aI282
aI360
asI35
(lp11
I564
aI564
asI37
(lp12
I902
aI677
aI224
asI40
(lp13
I338
aI338
asI42
(lp14
I395
aI593
aI282
aI338
asI46
(lp15
I282
aI282
asI48
(lp16
I564
aI564
aI564
aI564
aI564
aI564
aI564
aI564
aI564
aI564
asI58
(lp17
I282
aI282
asI60
(lp18
I593
aI593
aI593
asI63
(lp19
I564
aI1030
asI65
(lp20
I677
aI677
asI67
(lp21
I732
aI732
asI69
(lp22
I677
aI620
aI790
aI732
aI282
aI508
aI677
aI564
aI846
aI732
aI790
aI677
aI790
aI732
aI677
aI620
aI732
aI677
aI958
aI677
aI677
asI90
(lp23
I620
asI91
(lp24
I282
aI282
aI282
asI94
(lp25
I476
aI564
aI225
asI97
(lp26
I564
aI564
asI99
(lp27
I508
asI100
(lp28
I564
aI564
asI102
(lp29
I282
asI103
(lp30
I564
aI564
asI105
(lp31
I225
aI225
asI107
(lp32
I508
aI225
aI846
asI110
(lp33
I564
aI564
aI564
aI564
asI114
(lp34
I338
aI508
aI282
aI564
aI508
aI732
asI120
(lp35
I508
aI508
aI508
asI123
(lp36
I339
aI264
aI339
aI593
assS'prevcid'
p37
I126
s.